target datalayout = "e-m:e-p270:32:32-p271:32:32-p272:64:64-i64:64-i128:128-f80:128-n8:16:32:64-S128"
target triple = "x86_64-pc-linux-gnu"

%struct.WebPPicture = type { i32, i32, i32, i32, ptr, ptr, ptr, i32, i32, ptr, i32, [2 x i32], ptr, i32, [3 x i32], ptr, ptr, i32, ptr, ptr, i32, ptr, ptr, [3 x i32], ptr, ptr, [8 x i32], ptr, ptr, [2 x ptr] }

; Function Attrs: nounwind uwtable
define ptr @WebPSafeMalloc(i64 noundef %0, i64 noundef %1) #0 {
  %3 = alloca ptr, align 8
  %4 = alloca i64, align 8
  %5 = alloca i64, align 8
  %6 = alloca ptr, align 8
  store i64 %0, ptr %4, align 8
  store i64 %1, ptr %5, align 8
  br label %7

7:                                                ; preds = %2
  br label %8

8:                                                ; preds = %7
  %9 = load i64, ptr %4, align 8
  %10 = load i64, ptr %5, align 8
  %11 = call i32 @CheckSizeArgumentsOverflow(i64 noundef %9, i64 noundef %10)
  %12 = icmp ne i32 %11, 0
  br i1 %12, label %14, label %13

13:                                               ; preds = %8
  store ptr null, ptr %3, align 8
  br label %22

14:                                               ; preds = %8
  %15 = load i64, ptr %4, align 8
  %16 = load i64, ptr %5, align 8
  %17 = mul i64 %15, %16
  %18 = call noalias ptr @malloc(i64 noundef %17) #6
  store ptr %18, ptr %6, align 8
  br label %19

19:                                               ; preds = %14
  br label %20

20:                                               ; preds = %19
  %21 = load ptr, ptr %6, align 8
  store ptr %21, ptr %3, align 8
  br label %22

22:                                               ; preds = %20, %13
  %23 = load ptr, ptr %3, align 8
  ret ptr %23
}

; Function Attrs: nounwind uwtable
define internal i32 @CheckSizeArgumentsOverflow(i64 noundef %0, i64 noundef %1) #0 {
  %3 = alloca i32, align 4
  %4 = alloca i64, align 8
  %5 = alloca i64, align 8
  %6 = alloca i64, align 8
  store i64 %0, ptr %4, align 8
  store i64 %1, ptr %5, align 8
  %7 = load i64, ptr %4, align 8
  %8 = load i64, ptr %5, align 8
  %9 = mul i64 %7, %8
  store i64 %9, ptr %6, align 8
  %10 = load i64, ptr %4, align 8
  %11 = icmp eq i64 %10, 0
  br i1 %11, label %12, label %13

12:                                               ; preds = %2
  store i32 1, ptr %3, align 4
  br label %25

13:                                               ; preds = %2
  %14 = load i64, ptr %5, align 8
  %15 = load i64, ptr %4, align 8
  %16 = udiv i64 17179869184, %15
  %17 = icmp ugt i64 %14, %16
  br i1 %17, label %18, label %19

18:                                               ; preds = %13
  store i32 0, ptr %3, align 4
  br label %25

19:                                               ; preds = %13
  %20 = load i64, ptr %6, align 8
  %21 = call i32 @CheckSizeOverflow(i64 noundef %20)
  %22 = icmp ne i32 %21, 0
  br i1 %22, label %24, label %23

23:                                               ; preds = %19
  store i32 0, ptr %3, align 4
  br label %25

24:                                               ; preds = %19
  store i32 1, ptr %3, align 4
  br label %25

25:                                               ; preds = %24, %23, %18, %12
  %26 = load i32, ptr %3, align 4
  ret i32 %26
}

; Function Attrs: nounwind allocsize(0)
declare noalias ptr @malloc(i64 noundef) #1

; Function Attrs: nounwind uwtable
define ptr @WebPSafeCalloc(i64 noundef %0, i64 noundef %1) #0 {
  %3 = alloca ptr, align 8
  %4 = alloca i64, align 8
  %5 = alloca i64, align 8
  %6 = alloca ptr, align 8
  store i64 %0, ptr %4, align 8
  store i64 %1, ptr %5, align 8
  br label %7

7:                                                ; preds = %2
  br label %8

8:                                                ; preds = %7
  %9 = load i64, ptr %4, align 8
  %10 = load i64, ptr %5, align 8
  %11 = call i32 @CheckSizeArgumentsOverflow(i64 noundef %9, i64 noundef %10)
  %12 = icmp ne i32 %11, 0
  br i1 %12, label %14, label %13

13:                                               ; preds = %8
  store ptr null, ptr %3, align 8
  br label %21

14:                                               ; preds = %8
  %15 = load i64, ptr %4, align 8
  %16 = load i64, ptr %5, align 8
  %17 = call noalias ptr @calloc(i64 noundef %15, i64 noundef %16) #7
  store ptr %17, ptr %6, align 8
  br label %18

18:                                               ; preds = %14
  br label %19

19:                                               ; preds = %18
  %20 = load ptr, ptr %6, align 8
  store ptr %20, ptr %3, align 8
  br label %21

21:                                               ; preds = %19, %13
  %22 = load ptr, ptr %3, align 8
  ret ptr %22
}

; Function Attrs: nounwind allocsize(0,1)
declare noalias ptr @calloc(i64 noundef, i64 noundef) #2

; Function Attrs: nounwind uwtable
define void @WebPSafeFree(ptr noundef %0) #0 {
  %2 = alloca ptr, align 8
  store ptr %0, ptr %2, align 8
  %3 = load ptr, ptr %2, align 8
  %4 = icmp ne ptr %3, null
  br i1 %4, label %5, label %10

5:                                                ; preds = %1
  br label %6

6:                                                ; preds = %5
  br label %7

7:                                                ; preds = %6
  br label %8

8:                                                ; preds = %7
  br label %9

9:                                                ; preds = %8
  br label %10

10:                                               ; preds = %9, %1
  %11 = load ptr, ptr %2, align 8
  call void @free(ptr noundef %11) #8
  ret void
}

; Function Attrs: nounwind
declare void @free(ptr noundef) #3

; Function Attrs: nounwind uwtable
define ptr @WebPMalloc(i64 noundef %0) #0 {
  %2 = alloca i64, align 8
  store i64 %0, ptr %2, align 8
  %3 = load i64, ptr %2, align 8
  %4 = call ptr @WebPSafeMalloc(i64 noundef 1, i64 noundef %3)
  ret ptr %4
}

; Function Attrs: nounwind uwtable
define void @WebPFree(ptr noundef %0) #0 {
  %2 = alloca ptr, align 8
  store ptr %0, ptr %2, align 8
  %3 = load ptr, ptr %2, align 8
  call void @WebPSafeFree(ptr noundef %3)
  ret void
}

; Function Attrs: nounwind uwtable
define void @WebPCopyPlane(ptr noundef %0, i32 noundef %1, ptr noundef %2, i32 noundef %3, i32 noundef %4, i32 noundef %5) #0 {
  %7 = alloca ptr, align 8
  %8 = alloca i32, align 4
  %9 = alloca ptr, align 8
  %10 = alloca i32, align 4
  %11 = alloca i32, align 4
  %12 = alloca i32, align 4
  store ptr %0, ptr %7, align 8
  store i32 %1, ptr %8, align 4
  store ptr %2, ptr %9, align 8
  store i32 %3, ptr %10, align 4
  store i32 %4, ptr %11, align 4
  store i32 %5, ptr %12, align 4
  br label %13

13:                                               ; preds = %17, %6
  %14 = load i32, ptr %12, align 4
  %15 = add nsw i32 %14, -1
  store i32 %15, ptr %12, align 4
  %16 = icmp sgt i32 %14, 0
  br i1 %16, label %17, label %30

17:                                               ; preds = %13
  %18 = load ptr, ptr %9, align 8
  %19 = load ptr, ptr %7, align 8
  %20 = load i32, ptr %11, align 4
  %21 = sext i32 %20 to i64
  call void @llvm.memcpy.p0.p0.i64(ptr align 1 %18, ptr align 1 %19, i64 %21, i1 false)
  %22 = load i32, ptr %8, align 4
  %23 = load ptr, ptr %7, align 8
  %24 = sext i32 %22 to i64
  %25 = getelementptr inbounds i8, ptr %23, i64 %24
  store ptr %25, ptr %7, align 8
  %26 = load i32, ptr %10, align 4
  %27 = load ptr, ptr %9, align 8
  %28 = sext i32 %26 to i64
  %29 = getelementptr inbounds i8, ptr %27, i64 %28
  store ptr %29, ptr %9, align 8
  br label %13, !llvm.loop !4

30:                                               ; preds = %13
  ret void
}

; Function Attrs: nocallback nofree nounwind willreturn memory(argmem: readwrite)
declare void @llvm.memcpy.p0.p0.i64(ptr noalias nocapture writeonly, ptr noalias nocapture readonly, i64, i1 immarg) #4

; Function Attrs: nounwind uwtable
define void @WebPCopyPixels(ptr noundef %0, ptr noundef %1) #0 {
  %3 = alloca ptr, align 8
  %4 = alloca ptr, align 8
  store ptr %0, ptr %3, align 8
  store ptr %1, ptr %4, align 8
  %5 = load ptr, ptr %3, align 8
  %6 = getelementptr inbounds %struct.WebPPicture, ptr %5, i32 0, i32 12
  %7 = load ptr, ptr %6, align 8
  %8 = load ptr, ptr %3, align 8
  %9 = getelementptr inbounds %struct.WebPPicture, ptr %8, i32 0, i32 13
  %10 = load i32, ptr %9, align 8
  %11 = mul nsw i32 4, %10
  %12 = load ptr, ptr %4, align 8
  %13 = getelementptr inbounds %struct.WebPPicture, ptr %12, i32 0, i32 12
  %14 = load ptr, ptr %13, align 8
  %15 = load ptr, ptr %4, align 8
  %16 = getelementptr inbounds %struct.WebPPicture, ptr %15, i32 0, i32 13
  %17 = load i32, ptr %16, align 8
  %18 = mul nsw i32 4, %17
  %19 = load ptr, ptr %3, align 8
  %20 = getelementptr inbounds %struct.WebPPicture, ptr %19, i32 0, i32 2
  %21 = load i32, ptr %20, align 8
  %22 = mul nsw i32 4, %21
  %23 = load ptr, ptr %3, align 8
  %24 = getelementptr inbounds %struct.WebPPicture, ptr %23, i32 0, i32 3
  %25 = load i32, ptr %24, align 4
  call void @WebPCopyPlane(ptr noundef %7, i32 noundef %11, ptr noundef %14, i32 noundef %18, i32 noundef %22, i32 noundef %25)
  ret void
}

; Function Attrs: nounwind uwtable
define i32 @WebPGetColorPalette(ptr noundef %0, ptr noundef %1) #0 {
  %3 = alloca ptr, align 8
  %4 = alloca ptr, align 8
  store ptr %0, ptr %3, align 8
  store ptr %1, ptr %4, align 8
  %5 = load ptr, ptr %3, align 8
  %6 = load ptr, ptr %4, align 8
  %7 = call i32 @GetColorPalette(ptr noundef %5, ptr noundef %6)
  ret i32 %7
}

declare i32 @GetColorPalette(ptr noundef, ptr noundef) #5

; Function Attrs: nounwind uwtable
define internal i32 @CheckSizeOverflow(i64 noundef %0) #0 {
  %2 = alloca i64, align 8
  store i64 %0, ptr %2, align 8
  %3 = load i64, ptr %2, align 8
  %4 = load i64, ptr %2, align 8
  %5 = icmp eq i64 %3, %4
  %6 = zext i1 %5 to i32
  ret i32 %6
}


!llvm.module.flags = !{!0, !1, !2, !3}

!0 = !{i32 1, !"wchar_size", i32 4}
!1 = !{i32 8, !"PIC Level", i32 2}
!2 = !{i32 7, !"uwtable", i32 2}
!3 = !{i32 7, !"frame-pointer", i32 2}
!4 = distinct !{!4, !5}
!5 = !{!"llvm.loop.mustprogress"}
